; Function Attrs: mustprogress uwtable
define hidden noundef zeroext i1 @_ZN4cvc58internal4expr9isACINormENS0_12NodeTemplateILb1EEES3_(ptr noundef readonly captures(none) %0, ptr noundef readonly captures(none) %1) local_unnamed_addr #3 personality ptr @__gxx_personality_v0 {
  %3 = alloca %"class.cvc5::internal::NodeTemplate", align 8
  %4 = alloca %"class.cvc5::internal::NodeTemplate", align 8
  %5 = alloca %"class.cvc5::internal::NodeTemplate", align 8
  %6 = alloca %"class.cvc5::internal::NodeTemplate", align 8
  call void @llvm.lifetime.start.p0(i64 8, ptr nonnull %3) #24
  %7 = load ptr, ptr %0, align 8, !tbaa !9
  store ptr %7, ptr %4, align 8, !tbaa !9
  %8 = load i64, ptr %7, align 8
  %9 = lshr i64 %8, 40
  %10 = trunc nuw nsw i64 %9 to i32
  %11 = and i32 %10, 1048575
  %12 = icmp samesign ult i32 %11, 1048574
  br i1 %12, label %13, label %18, !prof !14

13:                                               ; preds = %2
  %14 = add i64 %8, 1099511627776
  %15 = and i64 %14, 1152920405095219200
  %16 = and i64 %8, -1152920405095219201
  %17 = or disjoint i64 %15, %16
  store i64 %17, ptr %7, align 8
  br label %_ZN4cvc58internal12NodeTemplateILb1EEC2ERKS2_.exit

18:                                               ; preds = %2
  %19 = icmp eq i32 %11, 1048574
  br i1 %19, label %20, label %_ZN4cvc58internal12NodeTemplateILb1EEC2ERKS2_.exit, !prof !13

20:                                               ; preds = %18
  %21 = or i64 %8, 1152920405095219200
  store i64 %21, ptr %7, align 8
  tail call void @_ZN4cvc58internal4expr9NodeValue20markRefCountMaxedOutEv(ptr noundef nonnull align 8 dereferenceable(24) %7)
  br label %_ZN4cvc58internal12NodeTemplateILb1EEC2ERKS2_.exit

_ZN4cvc58internal12NodeTemplateILb1EEC2ERKS2_.exit: ; preds = %13, %18, %20
  invoke void @_ZN4cvc58internal4expr16getACINormalFormENS0_12NodeTemplateILb1EEE(ptr dead_on_unwind nonnull writable sret(%"class.cvc5::internal::NodeTemplate") align 8 %3, ptr noundef nonnull %4)
          to label %22 unwind label %78

22:                                               ; preds = %_ZN4cvc58internal12NodeTemplateILb1EEC2ERKS2_.exit
  %23 = load ptr, ptr %4, align 8, !tbaa !9
  %24 = load i64, ptr %23, align 8
  %25 = and i64 %24, 1152920405095219200
  %.not.i.i = icmp eq i64 %25, 1152920405095219200
  br i1 %.not.i.i, label %_ZN4cvc58internal12NodeTemplateILb1EED2Ev.exit, label %26, !prof !13

26:                                               ; preds = %22
  %27 = add i64 %24, 1152920405095219200
  %28 = and i64 %27, 1152920405095219200
  %29 = and i64 %24, -1152920405095219201
  %30 = or disjoint i64 %28, %29
  store i64 %30, ptr %23, align 8
  %31 = icmp eq i64 %28, 0
  br i1 %31, label %32, label %_ZN4cvc58internal12NodeTemplateILb1EED2Ev.exit, !prof !13

32:                                               ; preds = %26
  invoke void @_ZN4cvc58internal4expr9NodeValue15markForDeletionEv(ptr noundef nonnull align 8 dereferenceable(24) %23)
          to label %_ZN4cvc58internal12NodeTemplateILb1EED2Ev.exit unwind label %33

33:                                               ; preds = %32
  %34 = landingpad { ptr, i32 }
          catch ptr null
  %35 = extractvalue { ptr, i32 } %34, 0
  call void @__clang_call_terminate(ptr %35) #26
  unreachable

_ZN4cvc58internal12NodeTemplateILb1EED2Ev.exit:   ; preds = %22, %26, %32
  call void @llvm.lifetime.start.p0(i64 8, ptr nonnull %5) #24
  %36 = load ptr, ptr %1, align 8, !tbaa !9
  store ptr %36, ptr %6, align 8, !tbaa !9
  %37 = load i64, ptr %36, align 8
  %38 = lshr i64 %37, 40
  %39 = trunc nuw nsw i64 %38 to i32
  %40 = and i32 %39, 1048575
  %41 = icmp samesign ult i32 %40, 1048574
  br i1 %41, label %42, label %47, !prof !14

42:                                               ; preds = %_ZN4cvc58internal12NodeTemplateILb1EED2Ev.exit
  %43 = add i64 %37, 1099511627776
  %44 = and i64 %43, 1152920405095219200
  %45 = and i64 %37, -1152920405095219201
  %46 = or disjoint i64 %44, %45
  store i64 %46, ptr %36, align 8
  br label %_ZN4cvc58internal12NodeTemplateILb1EEC2ERKS2_.exit7

47:                                               ; preds = %_ZN4cvc58internal12NodeTemplateILb1EED2Ev.exit
  %48 = icmp eq i32 %40, 1048574
  br i1 %48, label %49, label %_ZN4cvc58internal12NodeTemplateILb1EEC2ERKS2_.exit7, !prof !13

49:                                               ; preds = %47
  %50 = or i64 %37, 1152920405095219200
  store i64 %50, ptr %36, align 8
  invoke void @_ZN4cvc58internal4expr9NodeValue20markRefCountMaxedOutEv(ptr noundef nonnull align 8 dereferenceable(24) %36)
          to label %_ZN4cvc58internal12NodeTemplateILb1EEC2ERKS2_.exit7 unwind label %80

_ZN4cvc58internal12NodeTemplateILb1EEC2ERKS2_.exit7: ; preds = %47, %42, %49
  invoke void @_ZN4cvc58internal4expr16getACINormalFormENS0_12NodeTemplateILb1EEE(ptr dead_on_unwind nonnull writable sret(%"class.cvc5::internal::NodeTemplate") align 8 %5, ptr noundef nonnull %6)
          to label %51 unwind label %82

51:                                               ; preds = %_ZN4cvc58internal12NodeTemplateILb1EEC2ERKS2_.exit7
  %52 = load ptr, ptr %6, align 8, !tbaa !9
  %53 = load i64, ptr %52, align 8
  %54 = and i64 %53, 1152920405095219200
  %.not.i.i8 = icmp eq i64 %54, 1152920405095219200
  br i1 %.not.i.i8, label %_ZN4cvc58internal12NodeTemplateILb1EED2Ev.exit9, label %55, !prof !13

55:                                               ; preds = %51
  %56 = add i64 %53, 1152920405095219200
  %57 = and i64 %56, 1152920405095219200
  %58 = and i64 %53, -1152920405095219201
  %59 = or disjoint i64 %57, %58
  store i64 %59, ptr %52, align 8
  %60 = icmp eq i64 %57, 0
  br i1 %60, label %61, label %_ZN4cvc58internal12NodeTemplateILb1EED2Ev.exit9, !prof !13

61:                                               ; preds = %55
  invoke void @_ZN4cvc58internal4expr9NodeValue15markForDeletionEv(ptr noundef nonnull align 8 dereferenceable(24) %52)
          to label %_ZN4cvc58internal12NodeTemplateILb1EED2Ev.exit9 unwind label %62

62:                                               ; preds = %61
  %63 = landingpad { ptr, i32 }
          catch ptr null
  %64 = extractvalue { ptr, i32 } %63, 0
  call void @__clang_call_terminate(ptr %64) #26
  unreachable

_ZN4cvc58internal12NodeTemplateILb1EED2Ev.exit9:  ; preds = %51, %55, %61
  %65 = load ptr, ptr %0, align 8, !tbaa !9
  %66 = getelementptr inbounds nuw i8, ptr %65, i64 8
  %67 = load i64, ptr %66, align 8
  %68 = load ptr, ptr %1, align 8, !tbaa !9
  %69 = getelementptr inbounds nuw i8, ptr %68, i64 8
  %70 = load i64, ptr %69, align 8
  %71 = xor i64 %70, %67
  %72 = and i64 %71, 1023
  %73 = icmp eq i64 %72, 0
  br i1 %73, label %74, label %84

74:                                               ; preds = %_ZN4cvc58internal12NodeTemplateILb1EED2Ev.exit9
  %75 = load ptr, ptr %3, align 8, !tbaa !9
  %76 = load ptr, ptr %5, align 8, !tbaa !9
  %77 = icmp eq ptr %75, %76
  br label %90

78:                                               ; preds = %_ZN4cvc58internal12NodeTemplateILb1EEC2ERKS2_.exit
  %79 = landingpad { ptr, i32 }
          cleanup
  br label %118

80:                                               ; preds = %49
  %81 = landingpad { ptr, i32 }
          cleanup
  br label %117

82:                                               ; preds = %_ZN4cvc58internal12NodeTemplateILb1EEC2ERKS2_.exit7
  %83 = landingpad { ptr, i32 }
          cleanup
  call void @_ZN4cvc58internal12NodeTemplateILb1EED2Ev(ptr noundef nonnull align 8 dereferenceable(8) %6) #24
  br label %117

84:                                               ; preds = %_ZN4cvc58internal12NodeTemplateILb1EED2Ev.exit9
  %85 = load ptr, ptr %5, align 8, !tbaa !9
  %86 = icmp eq ptr %65, %85
  br i1 %86, label %90, label %87

87:                                               ; preds = %84
  %88 = load ptr, ptr %3, align 8, !tbaa !9
  %89 = icmp eq ptr %88, %68
  br label %90

90:                                               ; preds = %84, %87, %74
  %91 = phi ptr [ %76, %74 ], [ %85, %84 ], [ %85, %87 ]
  %.04 = phi i1 [ %77, %74 ], [ true, %84 ], [ %89, %87 ]
  %92 = load i64, ptr %91, align 8
  %93 = and i64 %92, 1152920405095219200
  %.not.i.i10 = icmp eq i64 %93, 1152920405095219200
  br i1 %.not.i.i10, label %_ZN4cvc58internal12NodeTemplateILb1EED2Ev.exit11, label %94, !prof !13

94:                                               ; preds = %90
  %95 = add i64 %92, 1152920405095219200
  %96 = and i64 %95, 1152920405095219200
  %97 = and i64 %92, -1152920405095219201
  %98 = or disjoint i64 %96, %97
  store i64 %98, ptr %91, align 8
  %99 = icmp eq i64 %96, 0
  br i1 %99, label %100, label %_ZN4cvc58internal12NodeTemplateILb1EED2Ev.exit11, !prof !13

100:                                              ; preds = %94
  invoke void @_ZN4cvc58internal4expr9NodeValue15markForDeletionEv(ptr noundef nonnull align 8 dereferenceable(24) %91)
          to label %_ZN4cvc58internal12NodeTemplateILb1EED2Ev.exit11 unwind label %101

101:                                              ; preds = %100
  %102 = landingpad { ptr, i32 }
          catch ptr null
  %103 = extractvalue { ptr, i32 } %102, 0
  call void @__clang_call_terminate(ptr %103) #26
  unreachable

_ZN4cvc58internal12NodeTemplateILb1EED2Ev.exit11: ; preds = %90, %94, %100
  call void @llvm.lifetime.end.p0(i64 8, ptr nonnull %5) #24
  %104 = load ptr, ptr %3, align 8, !tbaa !9
  %105 = load i64, ptr %104, align 8
  %106 = and i64 %105, 1152920405095219200
  %.not.i.i12 = icmp eq i64 %106, 1152920405095219200
  br i1 %.not.i.i12, label %_ZN4cvc58internal12NodeTemplateILb1EED2Ev.exit13, label %107, !prof !13

107:                                              ; preds = %_ZN4cvc58internal12NodeTemplateILb1EED2Ev.exit11
  %108 = add i64 %105, 1152920405095219200
  %109 = and i64 %108, 1152920405095219200
  %110 = and i64 %105, -1152920405095219201
  %111 = or disjoint i64 %109, %110
  store i64 %111, ptr %104, align 8
  %112 = icmp eq i64 %109, 0
  br i1 %112, label %113, label %_ZN4cvc58internal12NodeTemplateILb1EED2Ev.exit13, !prof !13

113:                                              ; preds = %107
  invoke void @_ZN4cvc58internal4expr9NodeValue15markForDeletionEv(ptr noundef nonnull align 8 dereferenceable(24) %104)
          to label %_ZN4cvc58internal12NodeTemplateILb1EED2Ev.exit13 unwind label %114

114:                                              ; preds = %113
  %115 = landingpad { ptr, i32 }
          catch ptr null
  %116 = extractvalue { ptr, i32 } %115, 0
  call void @__clang_call_terminate(ptr %116) #26
  unreachable

_ZN4cvc58internal12NodeTemplateILb1EED2Ev.exit13: ; preds = %_ZN4cvc58internal12NodeTemplateILb1EED2Ev.exit11, %107, %113
  call void @llvm.lifetime.end.p0(i64 8, ptr nonnull %3) #24
  ret i1 %.04

117:                                              ; preds = %82, %80
  %.pn = phi { ptr, i32 } [ %83, %82 ], [ %81, %80 ]
  call void @llvm.lifetime.end.p0(i64 8, ptr nonnull %5) #24
  br label %118

118:                                              ; preds = %117, %78
  %.sink = phi ptr [ %3, %117 ], [ %4, %78 ]
  %.pn.pn = phi { ptr, i32 } [ %.pn, %117 ], [ %79, %78 ]
  call void @_ZN4cvc58internal12NodeTemplateILb1EED2Ev(ptr noundef nonnull align 8 dereferenceable(8) %.sink) #24
  call void @llvm.lifetime.end.p0(i64 8, ptr nonnull %3) #24
  resume { ptr, i32 } %.pn.pn
}